#include <math.h>
#include <stdio.h>
#include <stdlib.h>
#include <string.h>


int main()
{
    int n,i,j;
    int ph[20] = {1, 1};
    int a[20];
    
    for (i=2; i<20; i++)
        ph[i] = ph[i-2] + ph[i-1];
    scanf("%d\n", &n);
    for (j = 0; j < n; j++)
        scanf("%d", &a[j]);
    for (j = 0; j < n; j++)
        printf("%d\n", ph[a[j]-1]);
    return 0;
}